ccopy_reg
_reconstructor
p0
(cPhysicsTools.HeppyCore.statistics.average
Average
p1
c__builtin__
object
p2
Ntp3
Rp4
(dp5
S'sumw'
p6
F26124.0
sS'sumwx'
p7
F26740.764794488332
sS'sumwx2'
p8
F31471.25390279577
sS'name'
p9
S'puWeight'
p10
sb.