ccopy_reg
_reconstructor
p0
(cFWCore.ParameterSet.Config
Process
p1
c__builtin__
object
p2
Ntp3
Rp4
(dp5
S'_Process__sequences'
p6
(dp7
sS'_Process__services'
p8
(dp9
sS'_Process__source'
p10
g0
(cFWCore.ParameterSet.Modules
Source
p11
g2
Ntp12
Rp13
(dp14
S'_Parameterizable__parameterNames'
p15
(lp16
sS'_isFrozen'
p17
I00
sS'_isModified'
p18
I00
sS'_lineNumber'
p19
I192
sS'_filename'
p20
S'/cvmfs/cms.cern.ch/slc6_amd64_gcc630/cms/cmssw-patch/CMSSW_9_4_6_patch1/python/FWCore/ParameterSet/Modules.py'
p21
sS'_TypedParameterizable__type'
p22
S'EmptySource'
p23
sbsS'_Process__aliases'
p24
(dp25
sS'out'
p26
g0
(cFWCore.ParameterSet.SequenceTypes
EndPath
p27
g2
Ntp28
Rp29
(dp30
g17
I00
sS'_seq'
p31
g0
(cFWCore.ParameterSet.SequenceTypes
_SequenceCollection
p32
g2
Ntp33
Rp34
(dp35
S'_collection'
p36
(lp37
g0
(cFWCore.ParameterSet.Modules
OutputModule
p38
g2
Ntp39
Rp40
(dp41
g15
(lp42
S'fileName'
p43
asg17
I00
sg18
I00
sg19
I5
sg20
S'/t3home/vstampf/CMSSW_9_4_6_patch1/src/CMGTools/HNL/cfg/crab/heppy_crab_fake_pset.py'
p44
sg43
g0
(cFWCore.ParameterSet.Types
string
p45
g2
Ntp46
Rp47
(dp48
g17
I00
sS'_ParameterTypeBase__isTracked'
p49
I00
sS'_value'
p50
S'dummyOutput.root'
p51
sg18
I00
sbsS'_Labelable__label'
p52
S'output'
p53
sg22
S'PoolOutputModule'
p54
sbasbsg52
g26
sg18
I00
sS'_tasks'
p55
g0
(cFWCore.ParameterSet.OrderedSet
OrderedSet
p56
g2
Ntp57
Rp58
(dp59
S'map'
p60
(dp61
sS'end'
p62
(lp63
Nag63
ag63
asbsbsS'_Process__psets'
p64
(dp65
S'maxEvents'
p66
g0
(cFWCore.ParameterSet.Types
PSet
p67
g2
Ntp68
Rp69
(dp70
g17
I00
sg49
I00
sg18
I00
sg15
(lp71
S'input'
p72
asg52
g66
sg72
g0
(cFWCore.ParameterSet.Types
int32
p73
g2
Ntp74
Rp75
(dp76
g17
I00
sg49
I00
sg50
I-1
sg18
I00
sbsbssS'_Process__essources'
p77
(dp78
sg23
g13
sg66
g69
sS'source'
p79
g13
sS'_Process__vpsets'
p80
(dp81
sS'_Process__name'
p82
S'FAKE'
p83
sS'_Process__subProcesses'
p84
(lp85
sS'_cloneToObjectDict'
p86
(dp87
I139852429109584
g69
sI139852429109520
g40
sI139852429109776
g29
ssS'_Process__esprefers'
p88
(dp89
sS'_Process__schedule'
p90
Nsg53
g40
sS'_Process__outputmodules'
p91
(dp92
g53
g40
ssS'_Process__analyzers'
p93
(dp94
sS'_Process__InExtendCall'
p95
I00
sS'_Process__modifiers'
p96
(tsS'_Process__producers'
p97
(dp98
sS'_Process__filters'
p99
(dp100
sS'_Process__looper'
p101
NsS'_Process__endpaths'
p102
g0
(cFWCore.ParameterSet.DictTypes
SortedKeysDict
p103
c__builtin__
dict
p104
(dp105
g26
g29
stp106
Rp107
(dp108
S'list'
p109
(lp110
g26
asbsS'_Process__esproducers'
p111
(dp112
sS'_Process__tasks'
p113
(dp114
sS'_Process__paths'
p115
g0
(g103
g104
(dp116
tp117
Rp118
(dp119
g109
(lp120
sbsS'_Process__partialschedules'
p121
(dp122
sS'_Process__isStrict'
p123
I00
sb.