ccopy_reg
_reconstructor
p0
(cPhysicsTools.HeppyCore.statistics.counter
Counter
p1
c__builtin__
list
p2
(lp3
(lp4
S'all events'
p5
aI8939
aa(lp6
S'at least 2 good jets'
p7
aI8520
aa(lp8
S'at least 2 clean jets'
p9
aI3366
aa(lp10
S'at least 1 b jet'
p11
aI4887
aa(lp12
S'at least 2 b jets'
p13
aI1001
aatp14
Rp15
(dp16
S'name'
p17
S'jets'
p18
sS'dico'
p19
(dp20
g13
I4
sg5
I0
sg9
I2
sg11
I3
sg7
I1
ssb.