ccopy_reg
_reconstructor
p0
(cPhysicsTools.HeppyCore.statistics.average
Average
p1
c__builtin__
object
p2
Ntp3
Rp4
(dp5
S'sumw'
p6
F8939.0
sS'sumwx'
p7
F8915.432555388214
sS'sumwx2'
p8
F8892.289362175377
sS'name'
p9
S'weight_tracking'
p10
sb.