(dp1
S'OriginalConfig'
p2
ccopy_reg
_reconstructor
p3
(cWMCore.Configuration
Configuration
p4
c__builtin__
object
p5
NtRp6
(dp7
S'Site'
p8
g3
(cWMCore.Configuration
ConfigSection
p9
g5
NtRp10
(dp11
S'_internal_skipChecks'
p12
I00
sS'_internal_documentation'
p13
S''
sS'_internal_settings'
p14
c__builtin__
set
p15
((lp16
S'whitelist'
p17
aS'storageSite'
p18
atRp19
sS'_internal_name'
p20
g8
sS'_internal_docstrings'
p21
(dp22
sS'_internal_children'
p23
g15
((ltRp24
sg18
S'T3_CH_PSI'
p25
sS'_internal_parent_ref'
p26
Nsg17
(lp27
S'T2_CH_CSCS'
p28
aS'T2_IT_Legnaro'
p29
aS'T2_UK_London_IC'
p30
aS'T2_UK_SGrid_Bristol'
p31
aS'T2_DE_DESY'
p32
aS'T2_ES_CIEMAT'
p33
aS'T2_IT_Rome'
p34
aS'T2_AT_Vienna'
p35
aS'T2_DE_RWTH'
p36
aS'T2_FR_GRIF_IRFU'
p37
aS'T2_HU_Budapest'
p38
aS'T2_FR_IPHC'
p39
aS'T2_BE_IIHE'
p40
aS'T2_IT_Pisa'
p41
aS'T2_ES_IFCA'
p42
aS'T2_UK_London_Brunel'
p43
aS'T2_US_Purdue'
p44
aS'T2_UA_KIPT'
p45
aS'T2_US_MIT'
p46
aS'T2_US_Wisconsin'
p47
aS'T2_US_UCSD'
p48
aS'T2_US_Vanderbilt'
p49
aS'T2_US_Caltech'
p50
asbsS'_internal_sections'
p51
(lp52
S'General'
p53
aS'JobType'
p54
aS'Data'
p55
ag8
asg53
g3
(g9
g5
NtRp56
(dp57
S'workArea'
p58
S'crab_DYBB_mem'
p59
sg12
I00
sg13
S''
sg14
g15
((lp60
g58
aS'transferLogs'
p61
aS'requestName'
p62
atRp63
sg20
g53
sg21
(dp64
sg23
g15
((ltRp65
sg62
S'DYBB_mem'
p66
sg26
Nsg61
I01
sbsS'_internal_webapps'
p67
(lp68
sS'_internal_components'
p69
(lp70
sg55
g3
(g9
g5
NtRp71
(dp72
S'outputDatasetTag'
p73
S'DYBB'
p74
sS'outputPrimaryDataset'
p75
S'mem'
p76
sg12
I00
sS'splitting'
p77
S'EventBased'
p78
sS'unitsPerJob'
p79
I10
sg13
S''
sg14
g15
((lp80
g73
aS'publication'
p81
ag79
aS'ignoreLocality'
p82
aS'inputDBS'
p83
ag77
aS'outLFNDirBase'
p84
ag75
aS'totalUnits'
p85
atRp86
sg82
I01
sg20
g55
sg83
S'global'
p87
sg21
(dp88
sg85
I120
sg23
g15
((ltRp89
sg84
S'/store/user/vstampf/crab/mem'
p90
sg26
Nsg81
I00
sbsg54
g3
(g9
g5
NtRp91
(dp92
S'outputFiles'
p93
(lp94
sg12
I00
sS'scriptArgs'
p95
(lp96
S'dataset=DYBB'
p97
aS'total=12'
p98
aS'useAAA=full'
p99
aS'cfgfile=hn3l_cfg.py'
p100
asg13
S''
sg14
g15
((lp101
g93
ag95
aS'disableAutomaticOutputCollection'
p102
aS'scriptExe'
p103
aS'pluginName'
p104
aS'psetName'
p105
aS'inputFiles'
p106
atRp107
sg20
g54
sg103
S'heppy_crab_script.sh'
p108
sg21
(dp109
sg104
S'PrivateMC'
p110
sg23
g15
((ltRp111
sg105
S'heppy_crab_fake_pset.py'
p112
sg26
Nsg106
(lp113
S'FrameworkJobReport.xml'
p114
aS'heppy_crab_script.py'
p115
aS'cmgdataset.tar.gz'
p116
aS'python.tar.gz'
p117
aS'cafpython.tar.gz'
p118
aS'options.json'
p119
aS'../hn3l_cfg.py'
p120
asg102
I01
sbsbsS'voGroup'
p121
S''
sS'Server'
p122
S'cmsweb.cern.ch'
p123
sS'instance'
p124
S'prod'
p125
sS'RequestName'
p126
V190426_110726:vstampf_crab_DYBB_mem
p127
sS'voRole'
p128
S'NULL'
p129
sS'Port'
p130
S''
s.